(dp1
S'output'
p2
S"<class 'pylast.WSError'> Track not found"
p3
sS'layer'
p4
S'/home/mayur/practice-python/pyv2/flask-web2py/web2py/applications/google_page/controllers/default.py'
p5
sS'code'
p6
S"# -*- coding: utf-8 -*-\n# this file is released under public domain and you can use without limitations\n\n#########################################################################\n## This is a sample controller\n## - index is the default action of any application\n## - user is required for authentication and authorization\n## - download is for downloading files uploaded in the db (does streaming)\n## - call exposes all registered services (none by default)\n#########################################################################\nfrom sim import similar_search\nfrom requests import get \ndef index():\n    form = FORM(INPUT(_name='artist', requires=IS_NOT_EMPTY()),INPUT(_name='song', requires=IS_NOT_EMPTY()),INPUT(_type='submit'))\n    if form.process().accepted:\n        session.artist = form.vars.artist\n        session.song = form.vars.song\n        redirect(URL('sim'))\n    return dict(form=form)\n\ndef sim():\n    list = [1,2,3]\n    return dict(list=similar_search(session.artist,session.song))\n\nresponse._vars=response._caller(sim)\n"
p7
sS'snapshot'
p8
(dp9
S'exception'
p10
(dp11
S'__module__'
p12
S"'pylast'"
p13
sS'__getslice__'
p14
S"<method-wrapper '__getslice__' of WSError object>"
p15
sS'__str__'
p16
S'<bound method WSError.r of WSError()>'
p17
sS'__reduce__'
p18
S'<built-in method __reduce__ of WSError object>'
p19
sS'__dict__'
p20
S"{'details': u'Track not found', 'network': pylast.LastFMNetwork('e3d64479d574074eac7058d08d..., 'mayuroks', '1bb1f581e36cdb77c933211c70c81397'), 'status': u'6'}"
p21
sS'__sizeof__'
p22
S'<built-in method __sizeof__ of WSError object>'
p23
sS'__weakref__'
p24
S'None'
p25
sS'__init__'
p26
S'<bound method WSError.__init__ of WSError()>'
p27
sS'__setattr__'
p28
S"<method-wrapper '__setattr__' of WSError object>"
p29
sS'__reduce_ex__'
p30
S'<built-in method __reduce_ex__ of WSError object>'
p31
sS'__new__'
p32
S'<built-in method __new__ of type object>'
p33
sS'__format__'
p34
S'<built-in method __format__ of WSError object>'
p35
sS'__class__'
p36
S"<class 'pylast.WSError'>"
p37
sS'details'
p38
S"u'Track not found'"
p39
sS'__doc__'
p40
S"'Exception related to the Network web service'"
p41
sS'status'
p42
S"u'6'"
p43
sS'__getitem__'
p44
S"<method-wrapper '__getitem__' of WSError object>"
p45
sS'__setstate__'
p46
S'<built-in method __setstate__ of WSError object>'
p47
sS'__getattribute__'
p48
S"<method-wrapper '__getattribute__' of WSError object>"
p49
sS'args'
p50
S'()'
p51
sS'get_id'
p52
S'<bound method WSError.get_id of WSError()>'
p53
sS'__subclasshook__'
p54
S'<built-in method __subclasshook__ of type object>'
p55
sS'__unicode__'
p56
S'<built-in method __unicode__ of WSError object>'
p57
sS'network'
p58
S"pylast.LastFMNetwork('e3d64479d574074eac7058d08d..., 'mayuroks', '1bb1f581e36cdb77c933211c70c81397')"
p59
sS'__delattr__'
p60
S"<method-wrapper '__delattr__' of WSError object>"
p61
sS'__repr__'
p62
S"<method-wrapper '__repr__' of WSError object>"
p63
sS'__hash__'
p64
S"<method-wrapper '__hash__' of WSError object>"
p65
ssS'evalue'
p66
S'Track not found'
p67
sS'request'
p68
cgluon.html
XML_unpickle
p69
(S's\x88[\x00\x00<div><table><tr><td style="font-weight:bold;vertical-align:top">ajax</td><td valign="top">:</td><td><div>False</div></td></tr><tr><td style="font-weight:bold;vertical-align:top">application</td><td valign="top">:</td><td><div>google_page</div></td></tr><tr><td style="font-weight:bold;vertical-align:top">args</td><td valign="top">:</td><td><div><table></table></div></td></tr><tr><td style="font-weight:bold;vertical-align:top">body</td><td valign="top">:</td><td><div>&lt;cStringIO.StringO object at 0x7f4c908558b8&gt;</div></td></tr><tr><td style="font-weight:bold;vertical-align:top">cid</td><td valign="top">:</td><td><div>None</div></td></tr><tr><td style="font-weight:bold;vertical-align:top">client</td><td valign="top">:</td><td><div>127.0.0.1</div></td></tr><tr><td style="font-weight:bold;vertical-align:top">controller</td><td valign="top">:</td><td><div>default</div></td></tr><tr><td style="font-weight:bold;vertical-align:top">cookies</td><td valign="top">:</td><td><div><table><tr><td style="font-weight:bold;vertical-align:top">session_id_admin</td><td valign="top">:</td><td><div>127.0.0.1-c9b6cfbe-9d41-4009-a3af-073610ac4b1a<table><tr><td style="font-weight:bold;vertical-align:top">comment</td><td valign="top">:</td><td><div></div></td></tr><tr><td style="font-weight:bold;vertical-align:top">domain</td><td valign="top">:</td><td><div></div></td></tr><tr><td style="font-weight:bold;vertical-align:top">expires</td><td valign="top">:</td><td><div></div></td></tr><tr><td style="font-weight:bold;vertical-align:top">httponly</td><td valign="top">:</td><td><div></div></td></tr><tr><td style="font-weight:bold;vertical-align:top">max-age</td><td valign="top">:</td><td><div></div></td></tr><tr><td style="font-weight:bold;vertical-align:top">path</td><td valign="top">:</td><td><div></div></td></tr><tr><td style="font-weight:bold;vertical-align:top">secure</td><td valign="top">:</td><td><div></div></td></tr><tr><td style="font-weight:bold;vertical-align:top">version</td><td valign="top">:</td><td><div></div></td></tr></table></div></td></tr><tr><td style="font-weight:bold;vertical-align:top">session_id_google_page</td><td valign="top">:</td><td><div>127.0.0.1-84cb2e7f-b0c3-4d93-be7b-84d0f7f81814<table><tr><td style="font-weight:bold;vertical-align:top">comment</td><td valign="top">:</td><td><div></div></td></tr><tr><td style="font-weight:bold;vertical-align:top">domain</td><td valign="top">:</td><td><div></div></td></tr><tr><td style="font-weight:bold;vertical-align:top">expires</td><td valign="top">:</td><td><div></div></td></tr><tr><td style="font-weight:bold;vertical-align:top">httponly</td><td valign="top">:</td><td><div></div></td></tr><tr><td style="font-weight:bold;vertical-align:top">max-age</td><td valign="top">:</td><td><div></div></td></tr><tr><td style="font-weight:bold;vertical-align:top">path</td><td valign="top">:</td><td><div></div></td></tr><tr><td style="font-weight:bold;vertical-align:top">secure</td><td valign="top">:</td><td><div></div></td></tr><tr><td style="font-weight:bold;vertical-align:top">version</td><td valign="top">:</td><td><div></div></td></tr></table></div></td></tr><tr><td style="font-weight:bold;vertical-align:top">session_id_test</td><td valign="top">:</td><td><div>127.0.0.1-8ac83956-f212-48b9-9f19-f48370f9c6cd<table><tr><td style="font-weight:bold;vertical-align:top">comment</td><td valign="top">:</td><td><div></div></td></tr><tr><td style="font-weight:bold;vertical-align:top">domain</td><td valign="top">:</td><td><div></div></td></tr><tr><td style="font-weight:bold;vertical-align:top">expires</td><td valign="top">:</td><td><div></div></td></tr><tr><td style="font-weight:bold;vertical-align:top">httponly</td><td valign="top">:</td><td><div></div></td></tr><tr><td style="font-weight:bold;vertical-align:top">max-age</td><td valign="top">:</td><td><div></div></td></tr><tr><td style="font-weight:bold;vertical-align:top">path</td><td valign="top">:</td><td><div></div></td></tr><tr><td style="font-weight:bold;vertical-align:top">secure</td><td valign="top">:</td><td><div></div></td></tr><tr><td style="font-weight:bold;vertical-align:top">version</td><td valign="top">:</td><td><div></div></td></tr></table></div></td></tr><tr><td style="font-weight:bold;vertical-align:top">session_id_welcome</td><td valign="top">:</td><td><div>127.0.0.1-9a1c24e4-3fc4-4cad-93b9-6a625fd0fab0<table><tr><td style="font-weight:bold;vertical-align:top">comment</td><td valign="top">:</td><td><div></div></td></tr><tr><td style="font-weight:bold;vertical-align:top">domain</td><td valign="top">:</td><td><div></div></td></tr><tr><td style="font-weight:bold;vertical-align:top">expires</td><td valign="top">:</td><td><div></div></td></tr><tr><td style="font-weight:bold;vertical-align:top">httponly</td><td valign="top">:</td><td><div></div></td></tr><tr><td style="font-weight:bold;vertical-align:top">max-age</td><td valign="top">:</td><td><div></div></td></tr><tr><td style="font-weight:bold;vertical-align:top">path</td><td valign="top">:</td><td><div></div></td></tr><tr><td style="font-weight:bold;vertical-align:top">secure</td><td valign="top">:</td><td><div></div></td></tr><tr><td style="font-weight:bold;vertical-align:top">version</td><td valign="top">:</td><td><div></div></td></tr></table></div></td></tr></table></div></td></tr><tr><td style="font-weight:bold;vertical-align:top">env</td><td valign="top">:</td><td><div><table><tr><td style="font-weight:bold;vertical-align:top">app_folders</td><td valign="top">:</td><td><div>set([&#x27;/home/mayur/practice-python/pyv2/flask-web2py/web2py/applications/welcome/&#x27;, &#x27;/home/mayur/practice-python/pyv2/flask-web2py/web2py/applications/google_page/&#x27;, &#x27;/home/mayur/practice-python/pyv2/flask-web2py/web2py/applications/admin/&#x27;])</div></td></tr><tr><td style="font-weight:bold;vertical-align:top">applications_parent</td><td valign="top">:</td><td><div>/home/mayur/practice-python/pyv2/flask-web2py/web2py</div></td></tr><tr><td style="font-weight:bold;vertical-align:top">cmd_args</td><td valign="top">:</td><td><div><table></table></div></td></tr><tr><td style="font-weight:bold;vertical-align:top">cmd_options</td><td valign="top">:</td><td><div>&lt;Values at 0x221a710: {&#x27;verbose&#x27;: False, &#x27;ip&#x27;: &#x27;127.0.0.1&#x27;, &#x27;with_scheduler&#x27;: False, &#x27;ips&#x27;: [&#x27;127.0.0.1&#x27;], &#x27;shutdown_timeout&#x27;: 5, &#x27;taskbar&#x27;: False, &#x27;with_coverage&#x27;: False, &#x27;port&#x27;: 8000, &#x27;maxthreads&#x27;: None, &#x27;softcron&#x27;: False, &#x27;server_name&#x27;: &#x27;localhost.localdomain&#x27;, &#x27;bpython&#x27;: False, &#x27;nogui&#x27;: False, &#x27;pid_filename&#x27;: &#x27;httpserver.pid&#x27;, &#x27;extcron&#x27;: False, &#x27;runcron&#x27;: False, &#x27;run_system_tests&#x27;: False, &#x27;test&#x27;: None, &#x27;folder&#x27;: &#x27;/home/mayur/practice-python/pyv2/flask-web2py/web2py&#x27;, &#x27;config&#x27;: &#x27;&#x27;, &#x27;minthreads&#x27;: None, &#x27;winservice&#x27;: &#x27;&#x27;, &#x27;shell&#x27;: None, &#x27;run&#x27;: &#x27;&#x27;, &#x27;log_filename&#x27;: &#x27;httpserver.log&#x27;, &#x27;debuglevel&#x27;: 30, &#x27;args&#x27;: [&#x27;&#x27;], &#x27;socket_timeout&#x27;: 5, &#x27;ssl_ca_certificate&#x27;: None, &#x27;scheduler&#x27;: None, &#x27;profiler_filename&#x27;: None, &#x27;ssl_private_key&#x27;: &#x27;&#x27;, &#x27;scheduler_groups&#x27;: None, &#x27;password&#x27;: &#x27;qwedsa&#x27;, &#x27;request_queue_size&#x27;: 5, &#x27;ssl_certificate&#x27;: &#x27;&#x27;, &#x27;cronjob&#x27;: False, &#x27;numthreads&#x27;: None, &#x27;quiet&#x27;: False, &#x27;interfaces&#x27;: None, &#x27;import_models&#x27;: False, &#x27;timeout&#x27;: 10, &#x27;plain&#x27;: False, &#x27;nobanner&#x27;: False}&gt;</div></td></tr><tr><td style="font-weight:bold;vertical-align:top">db_sessions</td><td valign="top">:</td><td><div>set([])</div></td></tr><tr><td style="font-weight:bold;vertical-align:top">debugging</td><td valign="top">:</td><td><div>True</div></td></tr><tr><td style="font-weight:bold;vertical-align:top">gluon_parent</td><td valign="top">:</td><td><div>/home/mayur/practice-python/pyv2/flask-web2py/web2py</div></td></tr><tr><td style="font-weight:bold;vertical-align:top">http_accept</td><td valign="top">:</td><td><div>text/html,application/xhtml+xml,application/xml;q=0.9,*/*;q=0.8</div></td></tr><tr><td style="font-weight:bold;vertical-align:top">http_accept_charset</td><td valign="top">:</td><td><div>ISO-8859-1,utf-8;q=0.7,*;q=0.3</div></td></tr><tr><td style="font-weight:bold;vertical-align:top">http_accept_encoding</td><td valign="top">:</td><td><div>gzip,deflate,sdch</div></td></tr><tr><td style="font-weight:bold;vertical-align:top">http_accept_language</td><td valign="top">:</td><td><div>en-US,en;q=0.8</div></td></tr><tr><td style="font-weight:bold;vertical-align:top">http_connection</td><td valign="top">:</td><td><div>keep-alive</div></td></tr><tr><td style="font-weight:bold;vertical-align:top">http_cookie</td><td valign="top">:</td><td><div>session_id_test=127.0.0.1-8ac83956-f212-48b9-9f19-f48370f9c6cd; session_id_welcome=127.0.0.1-9a1c24e4-3fc4-4cad-93b9-6a625fd0fab0; session_id_google_page=127.0.0.1-84cb2e7f-b0c3-4d93-be7b-84d0f7f81814; session_id_admin=127.0.0.1-c9b6cfbe-9d41-4009-a3af-073610ac4b1a</div></td></tr><tr><td style="font-weight:bold;vertical-align:top">http_host</td><td valign="top">:</td><td><div>127.0.0.1:8000</div></td></tr><tr><td style="font-weight:bold;vertical-align:top">http_referer</td><td valign="top">:</td><td><div>http://127.0.0.1:8000/google_page/default/index</div></td></tr><tr><td style="font-weight:bold;vertical-align:top">http_user_agent</td><td valign="top">:</td><td><div>Mozilla/5.0 (X11; Linux x86_64) AppleWebKit/537.31 (KHTML, like Gecko) Chrome/26.0.1410.63 Safari/537.31</div></td></tr><tr><td style="font-weight:bold;vertical-align:top">is_jython</td><td valign="top">:</td><td><div>False</div></td></tr><tr><td style="font-weight:bold;vertical-align:top">is_pypy</td><td valign="top">:</td><td><div>False</div></td></tr><tr><td style="font-weight:bold;vertical-align:top">local_hosts</td><td valign="top">:</td><td><div><table><tr><td><div>::1</div></td></tr><tr><td><div>::ffff:127.0.0.1</div></td></tr><tr><td><div>127.0.0.1</div></td></tr><tr><td><div>localhost.localdomain</div></td></tr></table></div></td></tr><tr><td style="font-weight:bold;vertical-align:top">path_info</td><td valign="top">:</td><td><div>/google_page/default/sim</div></td></tr><tr><td style="font-weight:bold;vertical-align:top">query_string</td><td valign="top">:</td><td><div></div></td></tr><tr><td style="font-weight:bold;vertical-align:top">remote_addr</td><td valign="top">:</td><td><div>127.0.0.1</div></td></tr><tr><td style="font-weight:bold;vertical-align:top">remote_port</td><td valign="top">:</td><td><div>52787</div></td></tr><tr><td style="font-weight:bold;vertical-align:top">request_method</td><td valign="top">:</td><td><div>GET</div></td></tr><tr><td style="font-weight:bold;vertical-align:top">request_uri</td><td valign="top">:</td><td><div>/google_page/default/sim</div></td></tr><tr><td style="font-weight:bold;vertical-align:top">script_name</td><td valign="top">:</td><td><div></div></td></tr><tr><td style="font-weight:bold;vertical-align:top">server_name</td><td valign="top">:</td><td><div>localhost.localdomain</div></td></tr><tr><td style="font-weight:bold;vertical-align:top">server_port</td><td valign="top">:</td><td><div>8000</div></td></tr><tr><td style="font-weight:bold;vertical-align:top">server_protocol</td><td valign="top">:</td><td><div>HTTP/1.1</div></td></tr><tr><td style="font-weight:bold;vertical-align:top">server_software</td><td valign="top">:</td><td><div>Rocket 1.2.6</div></td></tr><tr><td style="font-weight:bold;vertical-align:top">web2py_path</td><td valign="top">:</td><td><div>/home/mayur/practice-python/pyv2/flask-web2py/web2py</div></td></tr><tr><td style="font-weight:bold;vertical-align:top">web2py_version</td><td valign="top">:</td><td><div>2.5.1-stable+timestamp.2013.06.06.15.39.19</div></td></tr><tr><td style="font-weight:bold;vertical-align:top">wsgi_errors</td><td valign="top">:</td><td><div>&lt;open file &#x27;&lt;stderr&gt;&#x27;, mode &#x27;w&#x27; at 0x7f4ca2408270&gt;</div></td></tr><tr><td style="font-weight:bold;vertical-align:top">wsgi_file_wrapper</td><td valign="top">:</td><td><div>&lt;class wsgiref.util.FileWrapper at 0x21ae0b8&gt;</div></td></tr><tr><td style="font-weight:bold;vertical-align:top">wsgi_input</td><td valign="top">:</td><td><div>&lt;socket._fileobject object at 0x7f4c8834a1d0&gt;</div></td></tr><tr><td style="font-weight:bold;vertical-align:top">wsgi_multiprocess</td><td valign="top">:</td><td><div>False</div></td></tr><tr><td style="font-weight:bold;vertical-align:top">wsgi_multithread</td><td valign="top">:</td><td><div>True</div></td></tr><tr><td style="font-weight:bold;vertical-align:top">wsgi_run_once</td><td valign="top">:</td><td><div>False</div></td></tr><tr><td style="font-weight:bold;vertical-align:top">wsgi_url_scheme</td><td valign="top">:</td><td><div>http</div></td></tr><tr><td style="font-weight:bold;vertical-align:top">wsgi_version</td><td valign="top">:</td><td><div><table><tr><td><div>1</div></td></tr><tr><td><div>0</div></td></tr></table></div></td></tr></table></div></td></tr><tr><td style="font-weight:bold;vertical-align:top">extension</td><td valign="top">:</td><td><div>html</div></td></tr><tr><td style="font-weight:bold;vertical-align:top">folder</td><td valign="top">:</td><td><div>/home/mayur/practice-python/pyv2/flask-web2py/web2py/applications/google_page/</div></td></tr><tr><td style="font-weight:bold;vertical-align:top">function</td><td valign="top">:</td><td><div>sim</div></td></tr><tr><td style="font-weight:bold;vertical-align:top">get_vars</td><td valign="top">:</td><td><div><table></table></div></td></tr><tr><td style="font-weight:bold;vertical-align:top">global_settings</td><td valign="top">:</td><td><div><table><tr><td style="font-weight:bold;vertical-align:top">app_folders</td><td valign="top">:</td><td><div>set([&#x27;/home/mayur/practice-python/pyv2/flask-web2py/web2py/applications/welcome/&#x27;, &#x27;/home/mayur/practice-python/pyv2/flask-web2py/web2py/applications/google_page/&#x27;, &#x27;/home/mayur/practice-python/pyv2/flask-web2py/web2py/applications/admin/&#x27;])</div></td></tr><tr><td style="font-weight:bold;vertical-align:top">applications_parent</td><td valign="top">:</td><td><div>/home/mayur/practice-python/pyv2/flask-web2py/web2py</div></td></tr><tr><td style="font-weight:bold;vertical-align:top">cmd_args</td><td valign="top">:</td><td><div><table></table></div></td></tr><tr><td style="font-weight:bold;vertical-align:top">cmd_options</td><td valign="top">:</td><td><div>&lt;Values at 0x221a710: {&#x27;verbose&#x27;: False, &#x27;ip&#x27;: &#x27;127.0.0.1&#x27;, &#x27;with_scheduler&#x27;: False, &#x27;ips&#x27;: [&#x27;127.0.0.1&#x27;], &#x27;shutdown_timeout&#x27;: 5, &#x27;taskbar&#x27;: False, &#x27;with_coverage&#x27;: False, &#x27;port&#x27;: 8000, &#x27;maxthreads&#x27;: None, &#x27;softcron&#x27;: False, &#x27;server_name&#x27;: &#x27;localhost.localdomain&#x27;, &#x27;bpython&#x27;: False, &#x27;nogui&#x27;: False, &#x27;pid_filename&#x27;: &#x27;httpserver.pid&#x27;, &#x27;extcron&#x27;: False, &#x27;runcron&#x27;: False, &#x27;run_system_tests&#x27;: False, &#x27;test&#x27;: None, &#x27;folder&#x27;: &#x27;/home/mayur/practice-python/pyv2/flask-web2py/web2py&#x27;, &#x27;config&#x27;: &#x27;&#x27;, &#x27;minthreads&#x27;: None, &#x27;winservice&#x27;: &#x27;&#x27;, &#x27;shell&#x27;: None, &#x27;run&#x27;: &#x27;&#x27;, &#x27;log_filename&#x27;: &#x27;httpserver.log&#x27;, &#x27;debuglevel&#x27;: 30, &#x27;args&#x27;: [&#x27;&#x27;], &#x27;socket_timeout&#x27;: 5, &#x27;ssl_ca_certificate&#x27;: None, &#x27;scheduler&#x27;: None, &#x27;profiler_filename&#x27;: None, &#x27;ssl_private_key&#x27;: &#x27;&#x27;, &#x27;scheduler_groups&#x27;: None, &#x27;password&#x27;: &#x27;qwedsa&#x27;, &#x27;request_queue_size&#x27;: 5, &#x27;ssl_certificate&#x27;: &#x27;&#x27;, &#x27;cronjob&#x27;: False, &#x27;numthreads&#x27;: None, &#x27;quiet&#x27;: False, &#x27;interfaces&#x27;: None, &#x27;import_models&#x27;: False, &#x27;timeout&#x27;: 10, &#x27;plain&#x27;: False, &#x27;nobanner&#x27;: False}&gt;</div></td></tr><tr><td style="font-weight:bold;vertical-align:top">db_sessions</td><td valign="top">:</td><td><div>set([])</div></td></tr><tr><td style="font-weight:bold;vertical-align:top">debugging</td><td valign="top">:</td><td><div>True</div></td></tr><tr><td style="font-weight:bold;vertical-align:top">gluon_parent</td><td valign="top">:</td><td><div>/home/mayur/practice-python/pyv2/flask-web2py/web2py</div></td></tr><tr><td style="font-weight:bold;vertical-align:top">is_jython</td><td valign="top">:</td><td><div>False</div></td></tr><tr><td style="font-weight:bold;vertical-align:top">is_pypy</td><td valign="top">:</td><td><div>False</div></td></tr><tr><td style="font-weight:bold;vertical-align:top">local_hosts</td><td valign="top">:</td><td><div><table><tr><td><div>::1</div></td></tr><tr><td><div>::ffff:127.0.0.1</div></td></tr><tr><td><div>127.0.0.1</div></td></tr><tr><td><div>localhost.localdomain</div></td></tr></table></div></td></tr><tr><td style="font-weight:bold;vertical-align:top">web2py_version</td><td valign="top">:</td><td><div>2.5.1-stable+timestamp.2013.06.06.15.39.19</div></td></tr></table></div></td></tr><tr><td style="font-weight:bold;vertical-align:top">is_https</td><td valign="top">:</td><td><div>False</div></td></tr><tr><td style="font-weight:bold;vertical-align:top">is_local</td><td valign="top">:</td><td><div>True</div></td></tr><tr><td style="font-weight:bold;vertical-align:top">is_restful</td><td valign="top">:</td><td><div>False</div></td></tr><tr><td style="font-weight:bold;vertical-align:top">now</td><td valign="top">:</td><td><div>datetime.datetime(2013, 6, 12, 23, 23, 4, 483149)</div></td></tr><tr><td style="font-weight:bold;vertical-align:top">post_vars</td><td valign="top">:</td><td><div><table></table></div></td></tr><tr><td style="font-weight:bold;vertical-align:top">raw_args</td><td valign="top">:</td><td><div></div></td></tr><tr><td style="font-weight:bold;vertical-align:top">raw_extension</td><td valign="top">:</td><td><div>None</div></td></tr><tr><td style="font-weight:bold;vertical-align:top">url</td><td valign="top">:</td><td><div>/google_page/default/sim</div></td></tr><tr><td style="font-weight:bold;vertical-align:top">utcnow</td><td valign="top">:</td><td><div>datetime.datetime(2013, 6, 12, 17, 53, 4, 483187)</div></td></tr><tr><td style="font-weight:bold;vertical-align:top">uuid</td><td valign="top">:</td><td><div>google_page/127.0.0.1.2013-06-12.23-23-04.2fd8242d-c0f0-47e3-b21d-9144d3015d69</div></td></tr><tr><td style="font-weight:bold;vertical-align:top">vars</td><td valign="top">:</td><td><div><table></table></div></td></tr><tr><td style="font-weight:bold;vertical-align:top">wsgi</td><td valign="top">:</td><td><div><table><tr><td style="font-weight:bold;vertical-align:top">environ</td><td valign="top">:</td><td><div><table><tr><td style="font-weight:bold;vertical-align:top">HTTP_ACCEPT</td><td valign="top">:</td><td><div>text/html,application/xhtml+xml,application/xml;q=0.9,*/*;q=0.8</div></td></tr><tr><td style="font-weight:bold;vertical-align:top">HTTP_ACCEPT_CHARSET</td><td valign="top">:</td><td><div>ISO-8859-1,utf-8;q=0.7,*;q=0.3</div></td></tr><tr><td style="font-weight:bold;vertical-align:top">HTTP_ACCEPT_ENCODING</td><td valign="top">:</td><td><div>gzip,deflate,sdch</div></td></tr><tr><td style="font-weight:bold;vertical-align:top">HTTP_ACCEPT_LANGUAGE</td><td valign="top">:</td><td><div>en-US,en;q=0.8</div></td></tr><tr><td style="font-weight:bold;vertical-align:top">HTTP_CONNECTION</td><td valign="top">:</td><td><div>keep-alive</div></td></tr><tr><td style="font-weight:bold;vertical-align:top">HTTP_COOKIE</td><td valign="top">:</td><td><div>session_id_test=127.0.0.1-8ac83956-f212-48b9-9f19-f48370f9c6cd; session_id_welcome=127.0.0.1-9a1c24e4-3fc4-4cad-93b9-6a625fd0fab0; session_id_google_page=127.0.0.1-84cb2e7f-b0c3-4d93-be7b-84d0f7f81814; session_id_admin=127.0.0.1-c9b6cfbe-9d41-4009-a3af-073610ac4b1a</div></td></tr><tr><td style="font-weight:bold;vertical-align:top">HTTP_HOST</td><td valign="top">:</td><td><div>127.0.0.1:8000</div></td></tr><tr><td style="font-weight:bold;vertical-align:top">HTTP_REFERER</td><td valign="top">:</td><td><div>http://127.0.0.1:8000/google_page/default/index</div></td></tr><tr><td style="font-weight:bold;vertical-align:top">HTTP_USER_AGENT</td><td valign="top">:</td><td><div>Mozilla/5.0 (X11; Linux x86_64) AppleWebKit/537.31 (KHTML, like Gecko) Chrome/26.0.1410.63 Safari/537.31</div></td></tr><tr><td style="font-weight:bold;vertical-align:top">PATH_INFO</td><td valign="top">:</td><td><div>/google_page/default/sim</div></td></tr><tr><td style="font-weight:bold;vertical-align:top">QUERY_STRING</td><td valign="top">:</td><td><div></div></td></tr><tr><td style="font-weight:bold;vertical-align:top">REMOTE_ADDR</td><td valign="top">:</td><td><div>127.0.0.1</div></td></tr><tr><td style="font-weight:bold;vertical-align:top">REMOTE_PORT</td><td valign="top">:</td><td><div>52787</div></td></tr><tr><td style="font-weight:bold;vertical-align:top">REQUEST_METHOD</td><td valign="top">:</td><td><div>GET</div></td></tr><tr><td style="font-weight:bold;vertical-align:top">REQUEST_URI</td><td valign="top">:</td><td><div>/google_page/default/sim</div></td></tr><tr><td style="font-weight:bold;vertical-align:top">SCRIPT_NAME</td><td valign="top">:</td><td><div></div></td></tr><tr><td style="font-weight:bold;vertical-align:top">SERVER_NAME</td><td valign="top">:</td><td><div>localhost.localdomain</div></td></tr><tr><td style="font-weight:bold;vertical-align:top">SERVER_PORT</td><td valign="top">:</td><td><div>8000</div></td></tr><tr><td style="font-weight:bold;vertical-align:top">SERVER_PROTOCOL</td><td valign="top">:</td><td><div>HTTP/1.1</div></td></tr><tr><td style="font-weight:bold;vertical-align:top">SERVER_SOFTWARE</td><td valign="top">:</td><td><div>Rocket 1.2.6</div></td></tr><tr><td style="font-weight:bold;vertical-align:top">wsgi.errors</td><td valign="top">:</td><td><div>&lt;open file &#x27;&lt;stderr&gt;&#x27;, mode &#x27;w&#x27; at 0x7f4ca2408270&gt;</div></td></tr><tr><td style="font-weight:bold;vertical-align:top">wsgi.file_wrapper</td><td valign="top">:</td><td><div>&lt;class wsgiref.util.FileWrapper at 0x21ae0b8&gt;</div></td></tr><tr><td style="font-weight:bold;vertical-align:top">wsgi.input</td><td valign="top">:</td><td><div>&lt;cStringIO.StringO object at 0x7f4c908558b8&gt;</div></td></tr><tr><td style="font-weight:bold;vertical-align:top">wsgi.multiprocess</td><td valign="top">:</td><td><div>False</div></td></tr><tr><td style="font-weight:bold;vertical-align:top">wsgi.multithread</td><td valign="top">:</td><td><div>True</div></td></tr><tr><td style="font-weight:bold;vertical-align:top">wsgi.run_once</td><td valign="top">:</td><td><div>False</div></td></tr><tr><td style="font-weight:bold;vertical-align:top">wsgi.url_scheme</td><td valign="top">:</td><td><div>http</div></td></tr><tr><td style="font-weight:bold;vertical-align:top">wsgi.version</td><td valign="top">:</td><td><div>1</div></td></tr></table></div></td></tr></table></div></td></tr></table></div>'
tRp70
sS'frames'
p71
(lp72
(dp73
S'file'
p74
S'/home/mayur/practice-python/pyv2/flask-web2py/web2py/gluon/restricted.py'
p75
sS'dump'
p76
(dp77
S'environment'
p78
S"{'A': <class 'gluon.html.A'>, 'ANY_OF': <class 'gluon.validators.ANY_OF'>, 'Auth': <class 'gluon.tools.Auth'>, 'B': <class 'gluon.html.B'>, 'BEAUTIFY': <class 'gluon.html.BEAUTIFY'>, 'BODY': <class 'gluon.html.BODY'>, 'BR': <class 'gluon.html.BR'>, 'BUTTON': <class 'gluon.html.BUTTON'>, 'CAT': <class 'gluon.html.CAT'>, 'CENTER': <class 'gluon.html.CENTER'>, ...}"
p79
sS'ccode'
p80
S'<code object <module> at 0x7f4c8834a4b0, file "/...ons/google_page/controllers/default.py", line 11>'
p81
ssS'lnum'
p82
I212
sS'lines'
p83
(dp84
I207
S'    try:'
p85
sI208
S'        if isinstance(code, types.CodeType):'
p86
sI209
S'            ccode = code'
p87
sI210
S'        else:'
p88
sI211
S'            ccode = compile2(code, layer)'
p89
sI212
S'        exec ccode in environment'
p90
sI213
S'    except HTTP:'
p91
sI214
S'        raise'
p92
sI215
S'    except RestrictedError:'
p93
sI216
S'        # do not encapsulate (obfuscate) the original RestrictedError'
p94
ssS'call'
p95
S"(code='# -*- coding: utf-8 -*-\\n# this file is released ...ion.song))\\n\\nresponse._vars=response._caller(sim)\\n', environment={'A': <class 'gluon.html.A'>, 'ANY_OF': <class 'gluon.validators.ANY_OF'>, 'Auth': <class 'gluon.tools.Auth'>, 'B': <class 'gluon.html.B'>, 'BEAUTIFY': <class 'gluon.html.BEAUTIFY'>, 'BODY': <class 'gluon.html.BODY'>, 'BR': <class 'gluon.html.BR'>, 'BUTTON': <class 'gluon.html.BUTTON'>, 'CAT': <class 'gluon.html.CAT'>, 'CENTER': <class 'gluon.html.CENTER'>, ...}, layer='/home/mayur/practice-python/pyv2/flask-web2py/web2py/applications/google_page/controllers/default.py')"
p96
sS'func'
p97
S'restricted'
p98
sa(dp99
g74
S'/home/mayur/practice-python/pyv2/flask-web2py/web2py/applications/google_page/controllers/default.py'
p100
sg76
(dp101
sg82
I25
sg83
(dp102
I14
S"    form = FORM(INPUT(_name='artist', requires=IS_NOT_EMPTY()),INPUT(_name='song', requires=IS_NOT_EMPTY()),INPUT(_type='submit'))"
p103
sI15
S'    if form.process().accepted:'
p104
sI16
S'        session.artist = form.vars.artist'
p105
sI17
S'        session.song = form.vars.song'
p106
sI18
S"        redirect(URL('sim'))"
p107
sI19
S'    return dict(form=form)'
p108
sI20
S''
sI21
S'def sim():'
p109
sI22
S'    list = [1,2,3]'
p110
sI23
S'    return dict(list=similar_search(session.artist,session.song))'
p111
ssg95
S'()'
p112
sg97
S'<module>'
p113
sa(dp114
g74
S'/home/mayur/practice-python/pyv2/flask-web2py/web2py/gluon/globals.py'
p115
sg76
(dp116
S'self'
p117
S'undefined'
p118
sS'f'
S'<function sim>'
p119
ssg82
I194
sg83
(dp120
I192
S"        self.delimiters = ('{{', '}}')"
p121
sI193
S'        self._vars = None'
p122
sI194
S'        self._caller = lambda f: f()'
p123
sI195
S'        self._view_environment = None'
p124
sI196
S'        self._custom_commit = None'
p125
sI197
S'        self._custom_rollback = None'
p126
sI198
S''
sI189
S'        self.menu = []             # used by the default view layout'
p127
sI190
S'        self.files = []            # used by web2py_ajax.html'
p128
sI191
S'        self.generic_patterns = []  # patterns to allow generic views'
p129
ssg95
S'(f=<function sim>)'
p130
sg97
S'<lambda>'
p131
sa(dp132
g74
S'/home/mayur/practice-python/pyv2/flask-web2py/web2py/applications/google_page/controllers/default.py'
p133
sg76
(dp134
S'session.song'
p135
S"'rok'"
p136
sS'global session'
p137
S"<Storage {'_user_agent': {'is_mobile': False, 'i...98e184d0f2d91777c8f0ad4bbb6203d', 'song': 'rok'}>"
p138
sS'list'
p139
S'[1, 2, 3]'
p140
sS'session.artist'
p141
S"'may'"
p142
sS'global similar_search'
p143
S'<function similar_search>'
p144
sS'builtindict'
p145
S"<type 'dict'>"
p146
ssg82
I23
sg83
(dp147
I14
S"    form = FORM(INPUT(_name='artist', requires=IS_NOT_EMPTY()),INPUT(_name='song', requires=IS_NOT_EMPTY()),INPUT(_type='submit'))"
p148
sI15
S'    if form.process().accepted:'
p149
sI16
S'        session.artist = form.vars.artist'
p150
sI17
S'        session.song = form.vars.song'
p151
sI18
S"        redirect(URL('sim'))"
p152
sI19
S'    return dict(form=form)'
p153
sI20
S''
sI21
S'def sim():'
p154
sI22
S'    list = [1,2,3]'
p155
sI23
S'    return dict(list=similar_search(session.artist,session.song))'
p156
ssg95
S'()'
p157
sg97
S'sim'
p158
sa(dp159
g74
S'/home/mayur/practice-python/pyv2/flask-web2py/web2py/applications/google_page/modules/sim.py'
p160
sg76
(dp161
S'track'
p162
S"pylast.Track('may', 'rok', pylast.LastFMNetwork(... 'mayuroks', '1bb1f581e36cdb77c933211c70c81397'))"
p163
sS'track.get_similar'
p164
S"<bound method Track.get_similar of pylast.Track(...'mayuroks', '1bb1f581e36cdb77c933211c70c81397'))>"
p165
sS'my_list'
p166
g118
ssg82
I29
sg83
(dp167
I32
S'  #print(song_list[:10][8][1])'
p168
sI33
S'  print(song_list[:10])'
p169
sI24
S'  track = network.get_track(artist, song)'
p170
sI25
S''
sI26
S'  print(track.get_name)'
p171
sI27
S''
sI28
S'  ########### MY CODE ###########'
p172
sI29
S'  my_list = track.get_similar()'
p173
sI30
S'  song_list = [(my_list[i][1], str(my_list[i][0])) for i in range(len(my_list))]'
p174
sI31
S'  song_list = sorted(song_list, reverse=True)'
p175
ssg95
S"(artist='may', song='rok')"
p176
sg97
S'similar_search'
p177
sa(dp178
g74
S'/usr/lib/python2.7/site-packages/pylast.py'
p179
sg76
(dp180
S'doc'
p181
g118
sS'self'
p182
S"pylast.Track('may', 'rok', pylast.LastFMNetwork(... 'mayuroks', '1bb1f581e36cdb77c933211c70c81397'))"
p183
sS'builtinTrue'
p184
S'True'
p185
sS'self._request'
p186
S"<bound method Track._request of pylast.Track('ma...'mayuroks', '1bb1f581e36cdb77c933211c70c81397'))>"
p187
ssg82
I2482
sg83
(dp188
I2477
S"        self._request('track.ban')"
p189
sI2478
S''
sI2479
S'    def get_similar(self):'
p190
sI2480
S'        """Returns similar tracks for this track on the network, based on listening data. """'
p191
sI2481
S''
sI2482
S"        doc = self._request('track.getSimilar', True)"
p192
sI2483
S''
sI2484
S'        seq = []'
p193
sI2485
S'        for node in doc.getElementsByTagName("track"):'
p194
sI2486
S"            title = _extract(node, 'name')"
p195
ssg95
S"(self=pylast.Track('may', 'rok', pylast.LastFMNetwork(... 'mayuroks', '1bb1f581e36cdb77c933211c70c81397')))"
p196
sg97
S'get_similar'
p197
sa(dp198
g74
S'/usr/lib/python2.7/site-packages/pylast.py'
p199
sg76
(dp200
S'cacheable'
p201
g185
sS'self'
p202
S"pylast.Track('may', 'rok', pylast.LastFMNetwork(... 'mayuroks', '1bb1f581e36cdb77c933211c70c81397'))"
p203
sS'method_name'
p204
S"'track.getSimilar'"
p205
sS'params'
p206
S"{'artist': 'may', 'track': 'rok'}"
p207
sS'self.network'
p208
S"pylast.LastFMNetwork('e3d64479d574074eac7058d08d..., 'mayuroks', '1bb1f581e36cdb77c933211c70c81397')"
p209
sS'global _Request'
p210
S"<class 'pylast._Request'>"
p211
sS').execute'
p212
g118
ssg82
I970
sg83
(dp213
I965
S''
sI966
S'    def _request(self, method_name, cacheable = False, params = None):'
p214
sI967
S'        if not params:'
p215
sI968
S'            params = self._get_params()'
p216
sI969
S''
sI970
S'        return _Request(self.network, method_name, params).execute(cacheable)'
p217
sI971
S''
sI972
S'    def _get_params(self):'
p218
sI973
S'        """Returns the most common set of parameters between all objects."""'
p219
sI974
S''
ssg95
S"(self=pylast.Track('may', 'rok', pylast.LastFMNetwork(... 'mayuroks', '1bb1f581e36cdb77c933211c70c81397')), method_name='track.getSimilar', cacheable=True, params={'artist': 'may', 'track': 'rok'})"
p220
sg97
S'_request'
p221
sa(dp222
g74
S'/usr/lib/python2.7/site-packages/pylast.py'
p223
sg76
(dp224
S'self'
p225
S'<pylast._Request object>'
p226
sS'self._download_response'
p227
S'<bound method _Request._download_response of <pylast._Request object>>'
p228
sS'response'
p229
g118
ssg82
I828
sg83
(dp230
I832
S'    def _check_response_for_errors(self, response):'
p231
sI823
S'        """Returns the XML DOM response of the POST Request from the server"""'
p232
sI824
S''
sI825
S'        if self.network.is_caching_enabled() and cacheable:'
p233
sI826
S'            response = self._get_cached_response()'
p234
sI827
S'        else:'
p235
sI828
S'            response = self._download_response()'
p236
sI829
S''
sI830
S'        return minidom.parseString(_string(response))'
p237
sI831
S''
ssg95
S'(self=<pylast._Request object>, cacheable=True)'
p238
sg97
S'execute'
p239
sa(dp240
g74
S'/usr/lib/python2.7/site-packages/pylast.py'
p241
sg76
(dp242
S'response_text'
p243
S'u\'<?xml version="1.0" encoding="utf-8"?>\\n<lfm s...de="6">\\n    Track not found\\n</error>\\n</lfm>\\n\''
p244
sS'self'
p245
S'<pylast._Request object>'
p246
sS'self._check_response_for_errors'
p247
S'<bound method _Request._check_response_for_errors of <pylast._Request object>>'
p248
ssg82
I819
sg83
(dp249
I814
S'        try:'
p250
sI815
S'            response_text = _unicode(conn.getresponse().read())'
p251
sI816
S'        except Exception as e:'
p252
sI817
S'            raise MalformedResponseError(self.network, e)'
p253
sI818
S''
sI819
S'        self._check_response_for_errors(response_text)'
p254
sI820
S'        return response_text'
p255
sI821
S''
sI822
S'    def execute(self, cacheable = False):'
p256
sI823
S'        """Returns the XML DOM response of the POST Request from the server"""'
p257
ssg95
S'(self=<pylast._Request object>)'
p258
sg97
S'_download_response'
p259
sa(dp260
g74
S'/usr/lib/python2.7/site-packages/pylast.py'
p261
sg76
(dp262
S'status'
p263
S"u'6'"
p264
sS'self'
p265
S'<pylast._Request object>'
p266
sS'global WSError'
p267
S"<class 'pylast.WSError'>"
p268
sS'self.network'
p269
S"pylast.LastFMNetwork('e3d64479d574074eac7058d08d..., 'mayuroks', '1bb1f581e36cdb77c933211c70c81397')"
p270
sS'details'
p271
S"u'Track not found'"
p272
ssg82
I846
sg83
(dp273
I841
S''
sI842
S'        if e.getAttribute(\'status\') != "ok":'
p274
sI843
S"            e = doc.getElementsByTagName('error')[0]"
p275
sI844
S"            status = e.getAttribute('code')"
p276
sI845
S'            details = e.firstChild.data.strip()'
p277
sI846
S'            raise WSError(self.network, status, details)'
p278
sI847
S''
sI848
S'class SessionKeyGenerator(object):'
p279
sI849
S'    """Methods of generating a session key:'
p280
sI850
S'    1) Web Authentication:'
p281
ssg95
S'(self=<pylast._Request object>, response=u\'<?xml version="1.0" encoding="utf-8"?>\\n<lfm s...de="6">\\n    Track not found\\n</error>\\n</lfm>\\n\')'
p282
sg97
S'_check_response_for_errors'
p283
sasS'pyver'
p284
S'Python 2.7.3: /bin/python (prefix: /usr)'
p285
sS'session'
p286
g69
(S's\xfc\x00\x00\x00<div><table><tr><td style="font-weight:bold;vertical-align:top">artist</td><td valign="top">:</td><td><div>may</div></td></tr><tr><td style="font-weight:bold;vertical-align:top">song</td><td valign="top">:</td><td><div>rok</div></td></tr></table></div>'
tRp287
sS'etype'
p288
S"<class 'pylast.WSError'>"
p289
sS'date'
p290
S'Wed Jun 12 23:23:05 2013'
p291
sS'response'
p292
g69
(S's\x19-\x00\x00<div><table><tr><td style="font-weight:bold;vertical-align:top">body</td><td valign="top">:</td><td><div>&lt;cStringIO.StringO object at 0x7f4c781a4998&gt;</div></td></tr><tr><td style="font-weight:bold;vertical-align:top">cookies</td><td valign="top">:</td><td><div><table><tr><td style="font-weight:bold;vertical-align:top">session_id_google_page</td><td valign="top">:</td><td><div>127.0.0.1-84cb2e7f-b0c3-4d93-be7b-84d0f7f81814<table><tr><td style="font-weight:bold;vertical-align:top">comment</td><td valign="top">:</td><td><div></div></td></tr><tr><td style="font-weight:bold;vertical-align:top">domain</td><td valign="top">:</td><td><div></div></td></tr><tr><td style="font-weight:bold;vertical-align:top">expires</td><td valign="top">:</td><td><div></div></td></tr><tr><td style="font-weight:bold;vertical-align:top">httponly</td><td valign="top">:</td><td><div></div></td></tr><tr><td style="font-weight:bold;vertical-align:top">max-age</td><td valign="top">:</td><td><div></div></td></tr><tr><td style="font-weight:bold;vertical-align:top">path</td><td valign="top">:</td><td><div>/</div></td></tr><tr><td style="font-weight:bold;vertical-align:top">secure</td><td valign="top">:</td><td><div></div></td></tr><tr><td style="font-weight:bold;vertical-align:top">version</td><td valign="top">:</td><td><div></div></td></tr></table></div></td></tr></table></div></td></tr><tr><td style="font-weight:bold;vertical-align:top">delimiters</td><td valign="top">:</td><td><div><table><tr><td><div>{{</div></td></tr><tr><td><div>}}</div></td></tr></table></div></td></tr><tr><td style="font-weight:bold;vertical-align:top">files</td><td valign="top">:</td><td><div><table></table></div></td></tr><tr><td style="font-weight:bold;vertical-align:top">flash</td><td valign="top">:</td><td><div></div></td></tr><tr><td style="font-weight:bold;vertical-align:top">generic_patterns</td><td valign="top">:</td><td><div><table><tr><td><div>*</div></td></tr></table></div></td></tr><tr><td style="font-weight:bold;vertical-align:top">google_analytics_id</td><td valign="top">:</td><td><div>None</div></td></tr><tr><td style="font-weight:bold;vertical-align:top">headers</td><td valign="top">:</td><td><div><table><tr><td style="font-weight:bold;vertical-align:top">X-Powered-By</td><td valign="top">:</td><td><div>web2py</div></td></tr></table></div></td></tr><tr><td style="font-weight:bold;vertical-align:top">logo</td><td valign="top">:</td><td><div><a class="brand" href="http://www.web2py.com/"><b>web<span>2</span>py</b>&trade;&nbsp;</a></div></td></tr><tr><td style="font-weight:bold;vertical-align:top">menu</td><td valign="top">:</td><td><div><table><tr><td><div><table><tr><td><div>Home</div></td></tr><tr><td><div>False</div></td></tr><tr><td><div>/google_page/default/index</div></td></tr><tr><td><div><table></table></div></td></tr></table></div></td></tr><tr><td><div><table><tr><td><div><span class="highlighted">web2py</span></div></td></tr><tr><td><div>False</div></td></tr><tr><td><div>http://web2py.com</div></td></tr><tr><td><div><table><tr><td><div><table><tr><td><div>My Sites</div></td></tr><tr><td><div>False</div></td></tr><tr><td><div>/admin/default/site</div></td></tr></table></div></td></tr><tr><td><div><table><tr><td><div>This App</div></td></tr><tr><td><div>False</div></td></tr><tr><td><div>/admin/default/design/google_page</div></td></tr><tr><td><div>[(&lt;lazyT &#x27;Controller&#x27;&gt;, False, &#x27;/admin/default/edit/google_page/controllers/default.py&#x27;), (&lt;lazyT &#x27;View&#x27;&gt;, False, &#x27;/admin/default/edit/google_page/views/default/sim.html&#x27;), (&lt;lazyT &#x27;Layout&#x27;&gt;, False, &#x27;/admin/default/edit/google_page/views/layout.html&#x27;), (&lt;lazyT &#x27;Stylesheet&#x27;&gt;, False, &#x27;/admin/default/edit/google_page/static/css/web2py.css&#x27;), (&lt;lazyT &#x27;DB Model&#x27;&gt;, False, &#x27;/admin/default/edit/google_page/models/db.py&#x27;), (&lt;lazyT &#x27;Menu Model&#x27;&gt;, False, &#x27;/admin/default/edit/google_page/models/menu.py&#x27;), (&lt;lazyT &#x27;Database&#x27;&gt;, False, &#x27;/google_page/appadmin/index&#x27;), (&lt;lazyT &#x27;Errors&#x27;&gt;, False, &#x27;/admin/default/errors/google_page&#x27;), (&lt;lazyT &#x27;About&#x27;&gt;, False, &#x27;/admin/default/about/google_page&#x27;)]</div></td></tr></table></div></td></tr><tr><td><div><table><tr><td><div>web2py.com</div></td></tr><tr><td><div>False</div></td></tr><tr><td><div>http://www.web2py.com</div></td></tr><tr><td><div>[(&lt;lazyT &#x27;Download&#x27;&gt;, False, &#x27;http://www.web2py.com/examples/default/download&#x27;), (&lt;lazyT &#x27;Support&#x27;&gt;, False, &#x27;http://www.web2py.com/examples/default/support&#x27;), (&lt;lazyT &#x27;Demo&#x27;&gt;, False, &#x27;http://web2py.com/demo_admin&#x27;), (&lt;lazyT &#x27;Quick Examples&#x27;&gt;, False, &#x27;http://web2py.com/examples/default/examples&#x27;), (&lt;lazyT &#x27;FAQ&#x27;&gt;, False, &#x27;http://web2py.com/AlterEgo&#x27;), (&lt;lazyT &#x27;Videos&#x27;&gt;, False, &#x27;http://www.web2py.com/examples/default/videos/&#x27;), (&lt;lazyT &#x27;Free Applications&#x27;&gt;, False, &#x27;http://web2py.com/appliances&#x27;), (&lt;lazyT &#x27;Plugins&#x27;&gt;, False, &#x27;http://web2py.com/plugins&#x27;), (&lt;lazyT &#x27;Layouts&#x27;&gt;, False, &#x27;http://web2py.com/layouts&#x27;), (&lt;lazyT &#x27;Recipes&#x27;&gt;, False, &#x27;http://web2pyslices.com/&#x27;), (&lt;lazyT &#x27;Semantic&#x27;&gt;, False, &#x27;http://web2py.com/semantic&#x27;)]</div></td></tr></table></div></td></tr><tr><td><div><table><tr><td><div>Documentation</div></td></tr><tr><td><div>False</div></td></tr><tr><td><div>http://www.web2py.com/book</div></td></tr><tr><td><div>[(&lt;lazyT &#x27;Preface&#x27;&gt;, False, &#x27;http://www.web2py.com/book/default/chapter/00&#x27;), (&lt;lazyT &#x27;Introduction&#x27;&gt;, False, &#x27;http://www.web2py.com/book/default/chapter/01&#x27;), (&lt;lazyT &#x27;Python&#x27;&gt;, False, &#x27;http://www.web2py.com/book/default/chapter/02&#x27;), (&lt;lazyT &#x27;Overview&#x27;&gt;, False, &#x27;http://www.web2py.com/book/default/chapter/03&#x27;), (&lt;lazyT &#x27;The Core&#x27;&gt;, False, &#x27;http://www.web2py.com/book/default/chapter/04&#x27;), (&lt;lazyT &#x27;The Views&#x27;&gt;, False, &#x27;http://www.web2py.com/book/default/chapter/05&#x27;), (&lt;lazyT &#x27;Database&#x27;&gt;, False, &#x27;http://www.web2py.com/book/default/chapter/06&#x27;), (&lt;lazyT &#x27;Forms and Validators&#x27;&gt;, False, &#x27;http://www.web2py.com/book/default/chapter/07&#x27;), (&lt;lazyT &#x27;Email and SMS&#x27;&gt;, False, &#x27;http://www.web2py.com/book/default/chapter/08&#x27;), (&lt;lazyT &#x27;Access Control&#x27;&gt;, False, &#x27;http://www.web2py.com/book/default/chapter/09&#x27;), (&lt;lazyT &#x27;Services&#x27;&gt;, False, &#x27;http://www.web2py.com/book/default/chapter/10&#x27;), (&lt;lazyT &#x27;Ajax Recipes&#x27;&gt;, False, &#x27;http://www.web2py.com/book/default/chapter/11&#x27;), (&lt;lazyT &#x27;Components and Plugins&#x27;&gt;, False, &#x27;http://www.web2py.com/book/default/chapter/12&#x27;), (&lt;lazyT &#x27;Deployment Recipes&#x27;&gt;, False, &#x27;http://www.web2py.com/book/default/chapter/13&#x27;), (&lt;lazyT &#x27;Other Recipes&#x27;&gt;, False, &#x27;http://www.web2py.com/book/default/chapter/14&#x27;), (&lt;lazyT &#x27;Buy this book&#x27;&gt;, False, &#x27;http://stores.lulu.com/web2py&#x27;)]</div></td></tr></table></div></td></tr><tr><td><div><table><tr><td><div>Community</div></td></tr><tr><td><div>False</div></td></tr><tr><td><div>None</div></td></tr><tr><td><div>[(&lt;lazyT &#x27;Groups&#x27;&gt;, False, &#x27;http://www.web2py.com/examples/default/usergroups&#x27;), (&lt;lazyT &#x27;Twitter&#x27;&gt;, False, &#x27;http://twitter.com/web2py&#x27;), (&lt;lazyT &#x27;Live Chat&#x27;&gt;, False, &#x27;http://webchat.freenode.net/?channels=web2py&#x27;)]</div></td></tr></table></div></td></tr><tr><td><div><table><tr><td><div>Plugins</div></td></tr><tr><td><div>False</div></td></tr><tr><td><div>None</div></td></tr><tr><td><div>[(&#x27;plugin_wiki&#x27;, False, &#x27;http://web2py.com/examples/default/download&#x27;), (&lt;lazyT &#x27;Other Plugins&#x27;&gt;, False, &#x27;http://web2py.com/plugins&#x27;), (&lt;lazyT &#x27;Layout Plugins&#x27;&gt;, False, &#x27;http://web2py.com/layouts&#x27;)]</div></td></tr></table></div></td></tr></table></div></td></tr></table></div></td></tr></table></div></td></tr><tr><td style="font-weight:bold;vertical-align:top">meta</td><td valign="top">:</td><td><div><table><tr><td style="font-weight:bold;vertical-align:top">author</td><td valign="top">:</td><td><div>Your Name &lt;you@example.com&gt;</div></td></tr><tr><td style="font-weight:bold;vertical-align:top">description</td><td valign="top">:</td><td><div>a cool new app</div></td></tr><tr><td style="font-weight:bold;vertical-align:top">generator</td><td valign="top">:</td><td><div>Web2py Web Framework</div></td></tr><tr><td style="font-weight:bold;vertical-align:top">keywords</td><td valign="top">:</td><td><div>web2py, python, framework</div></td></tr></table></div></td></tr><tr><td style="font-weight:bold;vertical-align:top">models_to_run</td><td valign="top">:</td><td><div><table><tr><td><div>^\\w+\\.py$</div></td></tr><tr><td><div>^default/\\w+\\.py$</div></td></tr><tr><td><div>^default/sim/\\w+\\.py$</div></td></tr></table></div></td></tr><tr><td style="font-weight:bold;vertical-align:top">postprocessing</td><td valign="top">:</td><td><div><table></table></div></td></tr><tr><td style="font-weight:bold;vertical-align:top">session_cookie_expires</td><td valign="top">:</td><td><div>None</div></td></tr><tr><td style="font-weight:bold;vertical-align:top">session_data_name</td><td valign="top">:</td><td><div>session_data_google_page</div></td></tr><tr><td style="font-weight:bold;vertical-align:top">session_file</td><td valign="top">:</td><td><div>&lt;open file &#x27;/home/mayur/practice-python/pyv2/flask-web2py/web2py/applications/google_page/sessions/127.0.0.1-84cb2e7f-b0c3-4d93-be7b-84d0f7f81814&#x27;, mode &#x27;rb+&#x27; at 0x7f4c6c1f25d0&gt;</div></td></tr><tr><td style="font-weight:bold;vertical-align:top">session_filename</td><td valign="top">:</td><td><div>/home/mayur/practice-python/pyv2/flask-web2py/web2py/applications/google_page/sessions/127.0.0.1-84cb2e7f-b0c3-4d93-be7b-84d0f7f81814</div></td></tr><tr><td style="font-weight:bold;vertical-align:top">session_id</td><td valign="top">:</td><td><div>127.0.0.1-84cb2e7f-b0c3-4d93-be7b-84d0f7f81814</div></td></tr><tr><td style="font-weight:bold;vertical-align:top">session_id_name</td><td valign="top">:</td><td><div>session_id_google_page</div></td></tr><tr><td style="font-weight:bold;vertical-align:top">session_locked</td><td valign="top">:</td><td><div>True</div></td></tr><tr><td style="font-weight:bold;vertical-align:top">session_new</td><td valign="top">:</td><td><div>False</div></td></tr><tr><td style="font-weight:bold;vertical-align:top">session_storage_type</td><td valign="top">:</td><td><div>file</div></td></tr><tr><td style="font-weight:bold;vertical-align:top">status</td><td valign="top">:</td><td><div>200</div></td></tr><tr><td style="font-weight:bold;vertical-align:top">subtitle</td><td valign="top">:</td><td><div>customize me!</div></td></tr><tr><td style="font-weight:bold;vertical-align:top">title</td><td valign="top">:</td><td><div>Google Page</div></td></tr><tr><td style="font-weight:bold;vertical-align:top">view</td><td valign="top">:</td><td><div>default/sim.html</div></td></tr></table></div>'
tRp293
sS'locals'
p294
(dp295
g42
S"u'6'"
p296
sS'e'
S'<DOM Element: error>'
p297
sS'doc'
p298
S'<xml.dom.minidom.Document instance>'
p299
sS'self'
p300
S'<pylast._Request object>'
p301
sg38
S"u'Track not found'"
p302
sg292
S'u\'<?xml version="1.0" encoding="utf-8"?>\\n<lfm s...de="6">\\n    Track not found\\n</error>\\n</lfm>\\n\''
p303
sssS'traceback'
p304
S'Traceback (most recent call last):\n  File "/home/mayur/practice-python/pyv2/flask-web2py/web2py/gluon/restricted.py", line 212, in restricted\n    exec ccode in environment\n  File "/home/mayur/practice-python/pyv2/flask-web2py/web2py/applications/google_page/controllers/default.py", line 25, in <module>\n  File "/home/mayur/practice-python/pyv2/flask-web2py/web2py/gluon/globals.py", line 194, in <lambda>\n    self._caller = lambda f: f()\n  File "/home/mayur/practice-python/pyv2/flask-web2py/web2py/applications/google_page/controllers/default.py", line 23, in sim\n    return dict(list=similar_search(session.artist,session.song))\n  File "applications/google_page/modules/sim.py", line 29, in similar_search\n    my_list = track.get_similar()\n  File "/usr/lib/python2.7/site-packages/pylast.py", line 2482, in get_similar\n    doc = self._request(\'track.getSimilar\', True)\n  File "/usr/lib/python2.7/site-packages/pylast.py", line 970, in _request\n    return _Request(self.network, method_name, params).execute(cacheable)\n  File "/usr/lib/python2.7/site-packages/pylast.py", line 828, in execute\n    response = self._download_response()\n  File "/usr/lib/python2.7/site-packages/pylast.py", line 819, in _download_response\n    self._check_response_for_errors(response_text)\n  File "/usr/lib/python2.7/site-packages/pylast.py", line 846, in _check_response_for_errors\n    raise WSError(self.network, status, details)\nWSError: Track not found\n'
p305
s.